; ModuleID = 'source-C-CXX/6/1112.c'
source_filename = "source-C-CXX/6/1112.c"
target datalayout = "e-m:e-p270:32:32-p271:32:32-p272:64:64-i64:64-f80:128-n8:16:32:64-S128"
target triple = "x86_64-pc-linux-gnu"

@.str = private unnamed_addr constant [3 x i8] c"%s\00", align 1

; Function Attrs: nounwind sspstrong uwtable
define dso_local i32 @main() local_unnamed_addr #0 {
  %1 = alloca [256 x i8], align 16
  %2 = alloca [256 x i8], align 16
  %3 = alloca [256 x i8], align 16
  %4 = getelementptr inbounds [256 x i8], [256 x i8]* %1, i64 0, i64 0
  call void @llvm.lifetime.start.p0i8(i64 256, i8* nonnull %4) #4
  %5 = getelementptr inbounds [256 x i8], [256 x i8]* %2, i64 0, i64 0
  call void @llvm.lifetime.start.p0i8(i64 256, i8* nonnull %5) #4
  %6 = getelementptr inbounds [256 x i8], [256 x i8]* %3, i64 0, i64 0
  call void @llvm.lifetime.start.p0i8(i64 256, i8* nonnull %6) #4
  %7 = call i32 (i8*, ...) bitcast (i32 (...)* @gets to i32 (i8*, ...)*)(i8* nonnull %4) #4
  %8 = call i32 (i8*, ...) bitcast (i32 (...)* @gets to i32 (i8*, ...)*)(i8* nonnull %6) #4
  %9 = call i32 (i8*, ...) bitcast (i32 (...)* @gets to i32 (i8*, ...)*)(i8* nonnull %5) #4
  %10 = load i8, i8* %6, align 16
  %11 = load i8, i8* %4, align 16, !tbaa !5
  %12 = icmp eq i8 %11, 0
  br i1 %12, label %61, label %13

13:                                               ; preds = %0
  %14 = icmp eq i8 %10, 0
  br i1 %14, label %15, label %21

15:                                               ; preds = %13, %15
  %16 = phi i64 [ %17, %15 ], [ 0, %13 ]
  %17 = add nuw i64 %16, 1
  %18 = getelementptr inbounds [256 x i8], [256 x i8]* %1, i64 0, i64 %17
  %19 = load i8, i8* %18, align 1, !tbaa !5
  %20 = icmp eq i8 %19, 0
  br i1 %20, label %61, label %15, !llvm.loop !8

21:                                               ; preds = %13, %56
  %22 = phi i64 [ %57, %56 ], [ 0, %13 ]
  %23 = phi i8 [ %59, %56 ], [ %11, %13 ]
  %24 = icmp eq i8 %23, %10
  br i1 %24, label %25, label %56

25:                                               ; preds = %21, %25
  %26 = phi i64 [ %36, %25 ], [ %22, %21 ]
  %27 = phi i64 [ %35, %25 ], [ 0, %21 ]
  %28 = phi i8 [ %38, %25 ], [ %10, %21 ]
  %29 = phi i32 [ %34, %25 ], [ 0, %21 ]
  %30 = getelementptr inbounds [256 x i8], [256 x i8]* %1, i64 0, i64 %26
  %31 = load i8, i8* %30, align 1, !tbaa !5
  %32 = icmp ne i8 %28, %31
  %33 = zext i1 %32 to i32
  %34 = add nuw nsw i32 %29, %33
  %35 = add nuw nsw i64 %27, 1
  %36 = add nuw i64 %26, 1
  %37 = getelementptr inbounds [256 x i8], [256 x i8]* %3, i64 0, i64 %35
  %38 = load i8, i8* %37, align 1, !tbaa !5
  %39 = icmp eq i8 %38, 0
  br i1 %39, label %40, label %25, !llvm.loop !10

40:                                               ; preds = %25
  %41 = icmp eq i32 %34, 0
  br i1 %41, label %42, label %56

42:                                               ; preds = %40
  br i1 %14, label %61, label %43

43:                                               ; preds = %42
  %44 = and i64 %22, 4294967295
  br label %45

45:                                               ; preds = %43, %45
  %46 = phi i64 [ 0, %43 ], [ %51, %45 ]
  %47 = phi i64 [ %44, %43 ], [ %52, %45 ]
  %48 = getelementptr inbounds [256 x i8], [256 x i8]* %2, i64 0, i64 %46
  %49 = load i8, i8* %48, align 1, !tbaa !5
  %50 = getelementptr inbounds [256 x i8], [256 x i8]* %1, i64 0, i64 %47
  store i8 %49, i8* %50, align 1, !tbaa !5
  %51 = add nuw nsw i64 %46, 1
  %52 = add nuw i64 %47, 1
  %53 = getelementptr inbounds [256 x i8], [256 x i8]* %3, i64 0, i64 %51
  %54 = load i8, i8* %53, align 1, !tbaa !5
  %55 = icmp eq i8 %54, 0
  br i1 %55, label %61, label %45, !llvm.loop !11

56:                                               ; preds = %40, %21
  %57 = add nuw i64 %22, 1
  %58 = getelementptr inbounds [256 x i8], [256 x i8]* %1, i64 0, i64 %57
  %59 = load i8, i8* %58, align 1, !tbaa !5
  %60 = icmp eq i8 %59, 0
  br i1 %60, label %61, label %21, !llvm.loop !8

61:                                               ; preds = %56, %45, %15, %0, %42
  %62 = call i32 (i8*, ...) @printf(i8* nonnull dereferenceable(1) getelementptr inbounds ([3 x i8], [3 x i8]* @.str, i64 0, i64 0), i8* nonnull %4)
  call void @llvm.lifetime.end.p0i8(i64 256, i8* nonnull %6) #4
  call void @llvm.lifetime.end.p0i8(i64 256, i8* nonnull %5) #4
  call void @llvm.lifetime.end.p0i8(i64 256, i8* nonnull %4) #4
  ret i32 0
}

; Function Attrs: argmemonly mustprogress nofree nosync nounwind willreturn
declare void @llvm.lifetime.start.p0i8(i64 immarg, i8* nocapture) #1

declare i32 @gets(...) local_unnamed_addr #2

; Function Attrs: nofree nounwind
declare noundef i32 @printf(i8* nocapture noundef readonly, ...) local_unnamed_addr #3

; Function Attrs: argmemonly mustprogress nofree nosync nounwind willreturn
declare void @llvm.lifetime.end.p0i8(i64 immarg, i8* nocapture) #1


!llvm.module.flags = !{!0, !1, !2, !3}
!llvm.ident = !{!4}

!0 = !{i32 1, !"wchar_size", i32 4}
!1 = !{i32 7, !"PIC Level", i32 2}
!2 = !{i32 7, !"PIE Level", i32 2}
!3 = !{i32 7, !"uwtable", i32 1}
!4 = !{!"clang version 13.0.0"}
!5 = !{!6, !6, i64 0}
!6 = !{!"omnipotent char", !7, i64 0}
!7 = !{!"Simple C/C++ TBAA"}
!8 = distinct !{!8, !9}
!9 = !{!"llvm.loop.mustprogress"}
!10 = distinct !{!10, !9}
!11 = distinct !{!11, !9}
